target datalayout = "e-m:e-p270:32:32-p271:32:32-p272:64:64-i64:64-i128:128-f80:128-n8:16:32:64-S128"
target triple = "x86_64-unknown-linux-gnu"

%"class.rocksdb::Slice" = type { ptr, i64 }
%"class.rocksdb::InternalStats" = type { [9 x %"struct.std::atomic"], [14 x i64], [14 x i64], %"class.std::shared_ptr", %"class.std::vector.35", %"class.std::vector.35", %"struct.rocksdb::InternalStats::CompactionStats", %"class.std::vector.40", %"class.rocksdb::HistogramImpl", i8, i32, i64, %"struct.rocksdb::InternalStats::CFStatsSnapshot", %"struct.rocksdb::InternalStats::DBStatsSnapshot", i64, i32, ptr, ptr, i64 }
%"struct.std::atomic" = type { %"struct.std::__atomic_base" }
%"struct.std::__atomic_base" = type { i64 }
%"class.std::shared_ptr" = type { %"class.std::__shared_ptr" }
%"class.std::__shared_ptr" = type { ptr, %"class.std::__shared_count" }
%"class.std::__shared_count" = type { ptr }
%"class.std::vector.35" = type { %"struct.std::_Vector_base.36" }
%"struct.std::_Vector_base.36" = type { %"struct.std::_Vector_base<rocksdb::InternalStats::CompactionStats, std::allocator<rocksdb::InternalStats::CompactionStats>>::_Vector_impl" }
%"struct.std::_Vector_base<rocksdb::InternalStats::CompactionStats, std::allocator<rocksdb::InternalStats::CompactionStats>>::_Vector_impl" = type { %"struct.std::_Vector_base<rocksdb::InternalStats::CompactionStats, std::allocator<rocksdb::InternalStats::CompactionStats>>::_Vector_impl_data" }
%"struct.std::_Vector_base<rocksdb::InternalStats::CompactionStats, std::allocator<rocksdb::InternalStats::CompactionStats>>::_Vector_impl_data" = type { ptr, ptr, ptr }
%"struct.rocksdb::InternalStats::CompactionStats" = type <{ i64, i64, i64, i64, i64, i64, i64, i64, i32, i32, i32, i32, i64, i64, i64, i32, [20 x i32], [4 x i8] }>
%"class.std::vector.40" = type { %"struct.std::_Vector_base.41" }
%"struct.std::_Vector_base.41" = type { %"struct.std::_Vector_base<rocksdb::HistogramImpl, std::allocator<rocksdb::HistogramImpl>>::_Vector_impl" }
%"struct.std::_Vector_base<rocksdb::HistogramImpl, std::allocator<rocksdb::HistogramImpl>>::_Vector_impl" = type { %"struct.std::_Vector_base<rocksdb::HistogramImpl, std::allocator<rocksdb::HistogramImpl>>::_Vector_impl_data" }
%"struct.std::_Vector_base<rocksdb::HistogramImpl, std::allocator<rocksdb::HistogramImpl>>::_Vector_impl_data" = type { ptr, ptr, ptr }
%"class.rocksdb::HistogramImpl" = type { %"class.rocksdb::Histogram", %"struct.rocksdb::HistogramStat", %"class.std::mutex" }
%"class.rocksdb::Histogram" = type { ptr }
%"struct.rocksdb::HistogramStat" = type { %"struct.std::atomic", %"struct.std::atomic", %"struct.std::atomic", %"struct.std::atomic", %"struct.std::atomic", [109 x %"struct.std::atomic"], i64 }
%"class.std::mutex" = type { %"class.std::__mutex_base" }
%"class.std::__mutex_base" = type { %union.pthread_mutex_t }
%union.pthread_mutex_t = type { %struct.__pthread_mutex_s }
%struct.__pthread_mutex_s = type { i32, i32, i32, i32, i32, i16, i16, %struct.__pthread_internal_list }
%struct.__pthread_internal_list = type { ptr, ptr }
%"struct.rocksdb::InternalStats::CFStatsSnapshot" = type { %"struct.rocksdb::InternalStats::CompactionStats", i64, i64, i64, i64, i64, double, i64, i64, i64, i64 }
%"struct.rocksdb::InternalStats::DBStatsSnapshot" = type { i64, i64, i64, i64, i64, i64, i64, i64, double }

; Function Attrs: mustprogress nounwind uwtable
define linkonce_odr noundef i32 @_ZStanSt12memory_orderSt23__memory_order_modifier(i32 noundef %__m, i32 noundef %__mod) #1 comdat {
entry:
  %__m.addr = alloca i32, align 4
  %__mod.addr = alloca i32, align 4
  store i32 %__m, ptr %__m.addr, align 4
  store i32 %__mod, ptr %__mod.addr, align 4
  %0 = load i32, ptr %__m.addr, align 4
  %1 = load i32, ptr %__mod.addr, align 4
  %and = and i32 %0, %1
  ret i32 %and
}

; Function Attrs: mustprogress nounwind uwtable
define linkonce_odr noundef i64 @_ZNK7rocksdb13HistogramStat3numEv(ptr noundef nonnull align 8 dereferenceable(920) %this) #1 comdat align 2 {
entry:
  %this.addr.i = alloca ptr, align 8
  %__m.addr.i = alloca i32, align 4
  %__b.i = alloca i32, align 4
  %atomic-temp.i = alloca i64, align 8
  %this.addr = alloca ptr, align 8
  store ptr %this, ptr %this.addr, align 8
  %this1 = load ptr, ptr %this.addr, align 8
  %num_ = getelementptr inbounds %"struct.rocksdb::HistogramStat", ptr %this1, i32 0, i32 2
  store ptr %num_, ptr %this.addr.i, align 8
  store i32 0, ptr %__m.addr.i, align 4
  %this1.i = load ptr, ptr %this.addr.i, align 8
  %0 = load i32, ptr %__m.addr.i, align 4
  %call.i = call noundef i32 @_ZStanSt12memory_orderSt23__memory_order_modifier(i32 noundef %0, i32 noundef 65535)
  store i32 %call.i, ptr %__b.i, align 4
  %1 = load i32, ptr %__m.addr.i, align 4
  switch i32 %1, label %monotonic.i [
    i32 1, label %acquire.i
    i32 2, label %acquire.i
    i32 5, label %seqcst.i
  ]

monotonic.i:                                      ; preds = %entry
  %2 = load atomic i64, ptr %this1.i monotonic, align 8
  store i64 %2, ptr %atomic-temp.i, align 8
  br label %_ZNKSt13__atomic_baseImE4loadESt12memory_order.exit

acquire.i:                                        ; preds = %entry, %entry
  %3 = load atomic i64, ptr %this1.i acquire, align 8
  store i64 %3, ptr %atomic-temp.i, align 8
  br label %_ZNKSt13__atomic_baseImE4loadESt12memory_order.exit

seqcst.i:                                         ; preds = %entry
  %4 = load atomic i64, ptr %this1.i seq_cst, align 8
  store i64 %4, ptr %atomic-temp.i, align 8
  br label %_ZNKSt13__atomic_baseImE4loadESt12memory_order.exit

_ZNKSt13__atomic_baseImE4loadESt12memory_order.exit: ; preds = %seqcst.i, %acquire.i, %monotonic.i
  %5 = load i64, ptr %atomic-temp.i, align 8
  ret i64 %5
}

; Function Attrs: mustprogress uwtable
define linkonce_odr noundef i64 @_ZNK7rocksdb13HistogramImpl3numEv(ptr noundef nonnull align 8 dereferenceable(968) %this) unnamed_addr #0 comdat align 2 {
entry:
  %this.addr = alloca ptr, align 8
  store ptr %this, ptr %this.addr, align 8
  %this1 = load ptr, ptr %this.addr, align 8
  %stats_ = getelementptr inbounds %"class.rocksdb::HistogramImpl", ptr %this1, i32 0, i32 1
  %call = call noundef i64 @_ZNK7rocksdb13HistogramStat3numEv(ptr noundef nonnull align 8 dereferenceable(920) %stats_)
  ret i64 %call
}

; Function Attrs: mustprogress nounwind uwtable
define linkonce_odr noundef nonnull align 8 dereferenceable(968) ptr @_ZNSt6vectorIN7rocksdb13HistogramImplESaIS1_EEixEm(ptr noundef nonnull align 8 dereferenceable(24) %this, i64 noundef %__n) #1 comdat align 2 {
entry:
  %this.addr = alloca ptr, align 8
  %__n.addr = alloca i64, align 8
  store ptr %this, ptr %this.addr, align 8
  store i64 %__n, ptr %__n.addr, align 8
  %this1 = load ptr, ptr %this.addr, align 8
  %_M_impl = getelementptr inbounds %"struct.std::_Vector_base.41", ptr %this1, i32 0, i32 0
  %_M_start = getelementptr inbounds %"struct.std::_Vector_base<rocksdb::HistogramImpl, std::allocator<rocksdb::HistogramImpl>>::_Vector_impl_data", ptr %_M_impl, i32 0, i32 0
  %0 = load ptr, ptr %_M_start, align 8
  %1 = load i64, ptr %__n.addr, align 8
  %add.ptr = getelementptr inbounds %"class.rocksdb::HistogramImpl", ptr %0, i64 %1
  ret ptr %add.ptr
}

; Function Attrs: mustprogress uwtable
define noundef zeroext i1 @_ZN7rocksdb13InternalStats21HandleCFStatsPeriodicEPNSt7__cxx1112basic_stringIcSt11char_traitsIcESaIcEEENS_5SliceE(ptr noundef nonnull align 8 dereferenceable(1944) %this, ptr noundef %value, ptr %.coerce0, i64 %.coerce1) #0 align 2 {
entry:
  %retval = alloca i1, align 1
  %0 = alloca %"class.rocksdb::Slice", align 8
  %this.addr = alloca ptr, align 8
  %value.addr = alloca ptr, align 8
  %has_change = alloca i8, align 1
  %new_histogram_num = alloca i64, align 8
  %level = alloca i32, align 4
  %1 = getelementptr inbounds { ptr, i64 }, ptr %0, i32 0, i32 0
  store ptr %.coerce0, ptr %1, align 8
  %2 = getelementptr inbounds { ptr, i64 }, ptr %0, i32 0, i32 1
  store i64 %.coerce1, ptr %2, align 8
  store ptr %this, ptr %this.addr, align 8
  store ptr %value, ptr %value.addr, align 8
  %this1 = load ptr, ptr %this.addr, align 8
  %has_cf_change_since_dump_ = getelementptr inbounds %"class.rocksdb::InternalStats", ptr %this1, i32 0, i32 9
  %3 = load i8, ptr %has_cf_change_since_dump_, align 8
  %tobool = trunc i8 %3 to i1
  %frombool = zext i1 %tobool to i8
  store i8 %frombool, ptr %has_change, align 1
  %4 = load i8, ptr %has_change, align 1
  %tobool2 = trunc i8 %4 to i1
  br i1 %tobool2, label %if.end9, label %if.then

if.then:                                          ; preds = %entry
  store i64 0, ptr %new_histogram_num, align 8
  store i32 0, ptr %level, align 4
  br label %for.cond

for.cond:                                         ; preds = %for.inc, %if.then
  %5 = load i32, ptr %level, align 4
  %number_levels_ = getelementptr inbounds %"class.rocksdb::InternalStats", ptr %this1, i32 0, i32 15
  %6 = load i32, ptr %number_levels_, align 8
  %cmp = icmp slt i32 %5, %6
  br i1 %cmp, label %for.body, label %for.end

for.body:                                         ; preds = %for.cond
  %file_read_latency_ = getelementptr inbounds %"class.rocksdb::InternalStats", ptr %this1, i32 0, i32 7
  %7 = load i32, ptr %level, align 4
  %conv = sext i32 %7 to i64
  %call = call noundef nonnull align 8 dereferenceable(968) ptr @_ZNSt6vectorIN7rocksdb13HistogramImplESaIS1_EEixEm(ptr noundef nonnull align 8 dereferenceable(24) %file_read_latency_, i64 noundef %conv) #3
  %vtable = load ptr, ptr %call, align 8
  %vfn = getelementptr inbounds ptr, ptr %vtable, i64 10
  %8 = load ptr, ptr %vfn, align 8
  %call3 = call noundef i64 %8(ptr noundef nonnull align 8 dereferenceable(968) %call)
  %9 = load i64, ptr %new_histogram_num, align 8
  %add = add i64 %9, %call3
  store i64 %add, ptr %new_histogram_num, align 8
  br label %for.inc

for.inc:                                          ; preds = %for.body
  %10 = load i32, ptr %level, align 4
  %inc = add nsw i32 %10, 1
  store i32 %inc, ptr %level, align 4
  br label %for.cond, !llvm.loop !6

for.end:                                          ; preds = %for.cond
  %blob_file_read_latency_ = getelementptr inbounds %"class.rocksdb::InternalStats", ptr %this1, i32 0, i32 8
  %call4 = call noundef i64 @_ZNK7rocksdb13HistogramImpl3numEv(ptr noundef nonnull align 8 dereferenceable(968) %blob_file_read_latency_)
  %11 = load i64, ptr %new_histogram_num, align 8
  %add5 = add i64 %11, %call4
  store i64 %add5, ptr %new_histogram_num, align 8
  %12 = load i64, ptr %new_histogram_num, align 8
  %last_histogram_num = getelementptr inbounds %"class.rocksdb::InternalStats", ptr %this1, i32 0, i32 11
  %13 = load i64, ptr %last_histogram_num, align 8
  %cmp6 = icmp ne i64 %12, %13
  br i1 %cmp6, label %if.then7, label %if.end

if.then7:                                         ; preds = %for.end
  store i8 1, ptr %has_change, align 1
  %14 = load i64, ptr %new_histogram_num, align 8
  %last_histogram_num8 = getelementptr inbounds %"class.rocksdb::InternalStats", ptr %this1, i32 0, i32 11
  store i64 %14, ptr %last_histogram_num8, align 8
  br label %if.end

if.end:                                           ; preds = %if.then7, %for.end
  br label %if.end9

if.end9:                                          ; preds = %if.end, %entry
  %15 = load i8, ptr %has_change, align 1
  %tobool10 = trunc i8 %15 to i1
  br i1 %tobool10, label %if.then11, label %if.else

if.then11:                                        ; preds = %if.end9
  %no_cf_change_period_since_dump_ = getelementptr inbounds %"class.rocksdb::InternalStats", ptr %this1, i32 0, i32 10
  store i32 0, ptr %no_cf_change_period_since_dump_, align 4
  %has_cf_change_since_dump_12 = getelementptr inbounds %"class.rocksdb::InternalStats", ptr %this1, i32 0, i32 9
  store i8 0, ptr %has_cf_change_since_dump_12, align 8
  br label %if.end23

if.else:                                          ; preds = %if.end9
  %no_cf_change_period_since_dump_13 = getelementptr inbounds %"class.rocksdb::InternalStats", ptr %this1, i32 0, i32 10
  %16 = load i32, ptr %no_cf_change_period_since_dump_13, align 4
  %inc14 = add nsw i32 %16, 1
  store i32 %inc14, ptr %no_cf_change_period_since_dump_13, align 4
  %cmp15 = icmp sgt i32 %16, 0
  br i1 %cmp15, label %if.then16, label %if.end22

if.then16:                                        ; preds = %if.else
  %no_cf_change_period_since_dump_17 = getelementptr inbounds %"class.rocksdb::InternalStats", ptr %this1, i32 0, i32 10
  %17 = load i32, ptr %no_cf_change_period_since_dump_17, align 4
  %cmp18 = icmp eq i32 %17, 8
  br i1 %cmp18, label %if.then19, label %if.end21

if.then19:                                        ; preds = %if.then16
  %no_cf_change_period_since_dump_20 = getelementptr inbounds %"class.rocksdb::InternalStats", ptr %this1, i32 0, i32 10
  store i32 0, ptr %no_cf_change_period_since_dump_20, align 4
  br label %if.end21

if.end21:                                         ; preds = %if.then19, %if.then16
  store i1 true, ptr %retval, align 1
  br label %return

if.end22:                                         ; preds = %if.else
  br label %if.end23

if.end23:                                         ; preds = %if.end22, %if.then11
  %18 = load ptr, ptr %value.addr, align 8
  call void @_ZN7rocksdb13InternalStats26DumpCFStatsNoFileHistogramEbPNSt7__cxx1112basic_stringIcSt11char_traitsIcESaIcEEE(ptr noundef nonnull align 8 dereferenceable(1944) %this1, i1 noundef zeroext true, ptr noundef %18)
  %19 = load ptr, ptr %value.addr, align 8
  call void @_ZN7rocksdb13InternalStats19DumpCFFileHistogramEPNSt7__cxx1112basic_stringIcSt11char_traitsIcESaIcEEE(ptr noundef nonnull align 8 dereferenceable(1944) %this1, ptr noundef %19)
  store i1 true, ptr %retval, align 1
  br label %return

return:                                           ; preds = %if.end23, %if.end21
  %20 = load i1, ptr %retval, align 1
  ret i1 %20
}