; Function Attrs: mustprogress uwtable
define noundef zeroext i1 @_ZN7rocksdb13InternalStats21HandleCFStatsPeriodicEPNSt7__cxx1112basic_stringIcSt11char_traitsIcESaIcEEENS_5SliceE(ptr noundef nonnull align 8 dereferenceable(1944) %this, ptr noundef %value, ptr nocapture readnone %.coerce0, i64 %.coerce1) #4 align 2 {
entry:
  %has_cf_change_since_dump_ = getelementptr inbounds i8, ptr %this, i64 1544
  %0 = load i8, ptr %has_cf_change_since_dump_, align 8
  %1 = and i8 %0, 1
  %tobool.not = icmp eq i8 %1, 0
  br i1 %tobool.not, label %for.cond.preheader, label %if.then11

for.cond.preheader:                               ; preds = %entry
  %number_levels_ = getelementptr inbounds i8, ptr %this, i64 1912
  %2 = load i32, ptr %number_levels_, align 8
  %cmp10 = icmp sgt i32 %2, 0
  br i1 %cmp10, label %for.body.lr.ph, label %for.end

for.body.lr.ph:                                   ; preds = %for.cond.preheader
  %file_read_latency_ = getelementptr inbounds i8, ptr %this, i64 552
  br label %for.body

for.body:                                         ; preds = %for.body.lr.ph, %for.body
  %indvars.iv = phi i64 [ 0, %for.body.lr.ph ], [ %indvars.iv.next, %for.body ]
  %new_histogram_num.011 = phi i64 [ 0, %for.body.lr.ph ], [ %add, %for.body ]
  %3 = load ptr, ptr %file_read_latency_, align 8
  %add.ptr.i = getelementptr inbounds %"class.rocksdb::HistogramImpl", ptr %3, i64 %indvars.iv
  %vtable = load ptr, ptr %add.ptr.i, align 8
  %vfn = getelementptr inbounds i8, ptr %vtable, i64 80
  %4 = load ptr, ptr %vfn, align 8
  %call3 = tail call noundef i64 %4(ptr noundef nonnull align 8 dereferenceable(968) %add.ptr.i)
  %add = add i64 %call3, %new_histogram_num.011
  %indvars.iv.next = add nuw nsw i64 %indvars.iv, 1
  %5 = load i32, ptr %number_levels_, align 8
  %6 = sext i32 %5 to i64
  %cmp = icmp slt i64 %indvars.iv.next, %6
  br i1 %cmp, label %for.body, label %for.end, !llvm.loop !10

for.end:                                          ; preds = %for.body, %for.cond.preheader
  %new_histogram_num.0.lcssa = phi i64 [ 0, %for.cond.preheader ], [ %add, %for.body ]
  %num_.i.i = getelementptr inbounds i8, ptr %this, i64 600
  %7 = load atomic i64, ptr %num_.i.i monotonic, align 8
  %add5 = add i64 %7, %new_histogram_num.0.lcssa
  %last_histogram_num = getelementptr inbounds i8, ptr %this, i64 1552
  %8 = load i64, ptr %last_histogram_num, align 8
  %cmp6.not = icmp eq i64 %add5, %8
  br i1 %cmp6.not, label %if.else, label %if.then7

if.then7:                                         ; preds = %for.end
  store i64 %add5, ptr %last_histogram_num, align 8
  br label %if.then11

if.then11:                                        ; preds = %if.then7, %entry
  %no_cf_change_period_since_dump_ = getelementptr inbounds i8, ptr %this, i64 1548
  store i32 0, ptr %no_cf_change_period_since_dump_, align 4
  store i8 0, ptr %has_cf_change_since_dump_, align 8
  br label %if.end23

if.else:                                          ; preds = %for.end
  %no_cf_change_period_since_dump_13 = getelementptr inbounds i8, ptr %this, i64 1548
  %9 = load i32, ptr %no_cf_change_period_since_dump_13, align 4
  %inc14 = add nsw i32 %9, 1
  store i32 %inc14, ptr %no_cf_change_period_since_dump_13, align 4
  %cmp15 = icmp sgt i32 %9, 0
  br i1 %cmp15, label %if.then16, label %if.end23

if.then16:                                        ; preds = %if.else
  %cmp18 = icmp eq i32 %inc14, 8
  br i1 %cmp18, label %if.then19, label %return

if.then19:                                        ; preds = %if.then16
  store i32 0, ptr %no_cf_change_period_since_dump_13, align 4
  br label %return

if.end23:                                         ; preds = %if.else, %if.then11
  tail call void @_ZN7rocksdb13InternalStats26DumpCFStatsNoFileHistogramEbPNSt7__cxx1112basic_stringIcSt11char_traitsIcESaIcEEE(ptr noundef nonnull align 8 dereferenceable(1944) %this, i1 noundef zeroext true, ptr noundef %value)
  tail call void @_ZN7rocksdb13InternalStats19DumpCFFileHistogramEPNSt7__cxx1112basic_stringIcSt11char_traitsIcESaIcEEE(ptr noundef nonnull align 8 dereferenceable(1944) %this, ptr noundef %value)
  br label %return

return:                                           ; preds = %if.then16, %if.then19, %if.end23
  ret i1 true
}